target datalayout = "e-m:e-p270:32:32-p271:32:32-p272:64:64-i64:64-i128:128-f80:128-n8:16:32:64-S128"
target triple = "x86_64-pc-linux-gnu"

%"class.clang::SanitizerMask" = type { [2 x i64] }
%"class.std::__shared_count" = type { ptr }
%"class.llvm::StringMapImpl" = type { ptr, i32, i32, i32, i32 }
%"struct.std::_Rb_tree_header" = type { %"struct.std::_Rb_tree_node_base", i64 }
%"struct.std::_Rb_tree_node_base" = type { i32, ptr, ptr, ptr }
%"class.std::__cxx11::basic_string" = type { %"struct.std::__cxx11::basic_string<char>::_Alloc_hider", i64, %union.anon }
%"struct.std::__cxx11::basic_string<char>::_Alloc_hider" = type { ptr }
%union.anon = type { i64, [8 x i8] }
%"class.std::vector.295" = type { %"struct.std::_Vector_base.296" }
%"struct.std::_Vector_base.296" = type { %"struct.std::_Vector_base<std::__cxx11::basic_string<char>, std::allocator<std::__cxx11::basic_string<char>>>::_Vector_impl" }
%"struct.std::_Vector_base<std::__cxx11::basic_string<char>, std::allocator<std::__cxx11::basic_string<char>>>::_Vector_impl" = type { %"struct.std::_Vector_base<std::__cxx11::basic_string<char>, std::allocator<std::__cxx11::basic_string<char>>>::_Vector_impl_data" }
%"struct.std::_Vector_base<std::__cxx11::basic_string<char>, std::allocator<std::__cxx11::basic_string<char>>>::_Vector_impl_data" = type { ptr, ptr, ptr }
%"class.llvm::StringRef" = type { ptr, i64 }
%"class.clang::LangOptions" = type <{ %"class.clang::LangOptionsBase.base", [2 x i8], i32, %"struct.clang::SanitizerSet", i8, [7 x i8], %"class.std::vector.295", %"class.std::vector.295", %"class.std::vector.295", %"class.std::vector.295", %"class.std::vector.295", %"class.clang::ObjCRuntime", i32, %"class.std::__cxx11::basic_string", %"class.std::__cxx11::basic_string", %"class.std::__cxx11::basic_string", %"class.std::__cxx11::basic_string", %"class.std::vector.295", %"struct.clang::CommentOptions", %"class.std::vector.295", %"class.std::map.372", %"class.std::vector.378", %"class.std::__cxx11::basic_string", %"class.std::__cxx11::basic_string", %"class.std::optional.383", i8, [3 x i8], i32, i32, [4 x i8], %"class.std::vector.295", %"class.std::__cxx11::basic_string", i8, i8, [6 x i8], %"class.std::__cxx11::basic_string", i8, [7 x i8] }>
%"class.clang::LangOptionsBase.base" = type <{ i64, i64, i64, i64, i64, i64, i64, i64, i64, i64, i64, i64, i64, i64, i64, i64, i64, i64, i64, i64, i64, i64, i64, i64, i64, i16 }>
%"struct.clang::SanitizerSet" = type { %"class.clang::SanitizerMask" }
%"class.clang::ObjCRuntime" = type <{ i32, %"class.llvm::VersionTuple" }>
%"class.llvm::VersionTuple" = type { i64, i64 }
%"struct.clang::CommentOptions" = type <{ %"class.std::vector.295", i8, [7 x i8] }>
%"class.std::map.372" = type { %"class.std::_Rb_tree.373" }
%"class.std::_Rb_tree.373" = type { %"struct.std::_Rb_tree<std::__cxx11::basic_string<char>, std::pair<const std::__cxx11::basic_string<char>, std::__cxx11::basic_string<char>>, std::_Select1st<std::pair<const std::__cxx11::basic_string<char>, std::__cxx11::basic_string<char>>>, std::greater<std::__cxx11::basic_string<char>>>::_Rb_tree_impl" }
%"struct.std::_Rb_tree<std::__cxx11::basic_string<char>, std::pair<const std::__cxx11::basic_string<char>, std::__cxx11::basic_string<char>>, std::_Select1st<std::pair<const std::__cxx11::basic_string<char>, std::__cxx11::basic_string<char>>>, std::greater<std::__cxx11::basic_string<char>>>::_Rb_tree_impl" = type { [8 x i8], %"struct.std::_Rb_tree_header" }
%"class.std::vector.378" = type { %"struct.std::_Vector_base.379" }
%"struct.std::_Vector_base.379" = type { %"struct.std::_Vector_base<llvm::Triple, std::allocator<llvm::Triple>>::_Vector_impl" }
%"struct.std::_Vector_base<llvm::Triple, std::allocator<llvm::Triple>>::_Vector_impl" = type { %"struct.std::_Vector_base<llvm::Triple, std::allocator<llvm::Triple>>::_Vector_impl_data" }
%"struct.std::_Vector_base<llvm::Triple, std::allocator<llvm::Triple>>::_Vector_impl_data" = type { ptr, ptr, ptr }
%"class.std::optional.383" = type { %"struct.std::_Optional_base.384" }
%"struct.std::_Optional_base.384" = type { %"struct.std::_Optional_payload.386" }
%"struct.std::_Optional_payload.386" = type { %"struct.std::_Optional_payload_base.base.388", [3 x i8] }
%"struct.std::_Optional_payload_base.base.388" = type <{ %"union.std::_Optional_payload_base<clang::TargetCXXABI::Kind>::_Storage", i8 }>
%"union.std::_Optional_payload_base<clang::TargetCXXABI::Kind>::_Storage" = type { i32 }
%"class.clang::TargetInfo" = type <{ ptr, %"struct.clang::TransferrableTargetInfo.base", %"class.llvm::RefCountedBase.509", %"class.std::shared_ptr.510", %"class.llvm::Triple", i8, i8, i8, i8, i8, i8, i8, i8, i8, i8, i8, i8, i8, i8, i8, i8, %"class.std::__cxx11::basic_string", ptr, ptr, i8, i8, [2 x i8], %"class.clang::TargetCXXABI", ptr, %"class.llvm::StringRef", %"class.llvm::VersionTuple", i32, i32, %"class.std::optional.501", %"class.std::optional.513", %"class.llvm::StringSet", i8, [7 x i8] }>
%"struct.clang::TransferrableTargetInfo.base" = type <{ i8, i8, i8, i8, i8, i8, i8, i8, i8, i8, i8, i8, i8, i8, i8, i8, i8, i8, i8, i8, i8, i8, i8, i8, i8, [3 x i8], %"class.std::optional.501", i8, i8, i8, i8, i8, i8, i8, i8, i8, i8, i8, i8, i8, i8, i8, i8, i8, i8, i16, i16, [2 x i8], i32, i32, [4 x i8], ptr, ptr, ptr, ptr, ptr, ptr, ptr, i32, i32, i32, i32, i32, i32, i32, i32, i32, i32, i32, i32, i8, [3 x i8], i32, i32 }>
%"class.llvm::RefCountedBase.509" = type { i32 }
%"class.std::shared_ptr.510" = type { %"class.std::__shared_ptr.511" }
%"class.std::__shared_ptr.511" = type { ptr, %"class.std::__shared_count" }
%"class.llvm::Triple" = type { %"class.std::__cxx11::basic_string", i32, i32, i32, i32, i32, i32 }
%"class.clang::TargetCXXABI" = type { i32 }
%"class.std::optional.501" = type { %"struct.std::_Optional_base.502" }
%"struct.std::_Optional_base.502" = type { %"struct.std::_Optional_payload.504" }
%"struct.std::_Optional_payload.504" = type { %"struct.std::_Optional_payload_base.base.506", [3 x i8] }
%"struct.std::_Optional_payload_base.base.506" = type <{ %"union.std::_Optional_payload_base<unsigned int>::_Storage", i8 }>
%"union.std::_Optional_payload_base<unsigned int>::_Storage" = type { i32 }
%"class.std::optional.513" = type { %"struct.std::_Optional_base.514" }
%"struct.std::_Optional_base.514" = type { %"struct.std::_Optional_payload.516" }
%"struct.std::_Optional_payload.516" = type { %"struct.std::_Optional_payload.base.520", [7 x i8] }
%"struct.std::_Optional_payload.base.520" = type { %"struct.std::_Optional_payload_base.base.519" }
%"struct.std::_Optional_payload_base.base.519" = type <{ %"union.std::_Optional_payload_base<llvm::Triple>::_Storage", i8 }>
%"union.std::_Optional_payload_base<llvm::Triple>::_Storage" = type { %"class.llvm::Triple" }
%"class.llvm::StringSet" = type { %"class.llvm::StringMap.523" }
%"class.llvm::StringMap.523" = type { %"class.llvm::StringMapImpl" }

; Function Attrs: mustprogress nounwind uwtable
define linkonce_odr hidden noundef i32 @_ZNK4llvm6Triple5getOSEv(ptr noundef nonnull align 8 dereferenceable(56) %0) #0 comdat align 2 {
  %2 = alloca ptr, align 8
  store ptr %0, ptr %2, align 8
  %3 = load ptr, ptr %2, align 8
  %4 = getelementptr inbounds nuw %"class.llvm::Triple", ptr %3, i32 0, i32 4
  %5 = load i32, ptr %4, align 4
  ret i32 %5
}

; Function Attrs: mustprogress nounwind uwtable
define linkonce_odr hidden noundef zeroext i1 @_ZNK4llvm6Triple11isOSWindowsEv(ptr noundef nonnull align 8 dereferenceable(56) %0) #0 comdat align 2 {
  %2 = alloca ptr, align 8
  store ptr %0, ptr %2, align 8
  %3 = load ptr, ptr %2, align 8
  %4 = call noundef i32 @_ZNK4llvm6Triple5getOSEv(ptr noundef nonnull align 8 dereferenceable(56) %3)
  %5 = icmp eq i32 %4, 14
  ret i1 %5
}

; Function Attrs: mustprogress nounwind uwtable
define linkonce_odr hidden noundef nonnull align 8 dereferenceable(56) ptr @_ZNK5clang10TargetInfo9getTripleEv(ptr noundef nonnull align 8 dereferenceable(489) %0) #0 comdat align 2 {
  %2 = alloca ptr, align 8
  store ptr %0, ptr %2, align 8
  %3 = load ptr, ptr %2, align 8
  %4 = getelementptr inbounds nuw %"class.clang::TargetInfo", ptr %3, i32 0, i32 4
  ret ptr %4
}

; Function Attrs: mustprogress nounwind uwtable
define dso_local void @_ZN5clang12Preprocessor23processPathForFileMacroERN4llvm15SmallVectorImplIcEERKNS_11LangOptionsERKNS_10TargetInfoE(ptr noundef nonnull align 8 dereferenceable(24) %0, ptr noundef nonnull align 8 dereferenceable(841) %1, ptr noundef nonnull align 8 dereferenceable(489) %2) #0 align 2 {
  %4 = alloca ptr, align 8
  %5 = alloca ptr, align 8
  %6 = alloca ptr, align 8
  store ptr %0, ptr %4, align 8
  store ptr %1, ptr %5, align 8
  store ptr %2, ptr %6, align 8
  %7 = load ptr, ptr %5, align 8
  %8 = load ptr, ptr %4, align 8
  call void @_ZNK5clang11LangOptions15remapPathPrefixERN4llvm15SmallVectorImplIcEE(ptr noundef nonnull align 8 dereferenceable(841) %7, ptr noundef nonnull align 8 dereferenceable(24) %8)
  %9 = load ptr, ptr %5, align 8
  %10 = getelementptr inbounds nuw %"class.clang::LangOptions", ptr %9, i32 0, i32 32
  %11 = load i8, ptr %10, align 8
  %12 = trunc i8 %11 to i1
  br i1 %12, label %13, label %24

13:                                               ; preds = %3
  %14 = load ptr, ptr %6, align 8
  %15 = call noundef nonnull align 8 dereferenceable(56) ptr @_ZNK5clang10TargetInfo9getTripleEv(ptr noundef nonnull align 8 dereferenceable(489) %14)
  %16 = call noundef zeroext i1 @_ZNK4llvm6Triple11isOSWindowsEv(ptr noundef nonnull align 8 dereferenceable(56) %15)
  br i1 %16, label %17, label %20

17:                                               ; preds = %13
  %18 = load ptr, ptr %4, align 8
  %19 = call noundef zeroext i1 @_ZN4llvm3sys4path11remove_dotsERNS_15SmallVectorImplIcEEbNS1_5StyleE(ptr noundef nonnull align 8 dereferenceable(24) %18, i1 noundef zeroext false, i32 noundef 3)
  br label %23

20:                                               ; preds = %13
  %21 = load ptr, ptr %4, align 8
  %22 = call noundef zeroext i1 @_ZN4llvm3sys4path11remove_dotsERNS_15SmallVectorImplIcEEbNS1_5StyleE(ptr noundef nonnull align 8 dereferenceable(24) %21, i1 noundef zeroext false, i32 noundef 1)
  br label %23

23:                                               ; preds = %20, %17
  br label %24

24:                                               ; preds = %23, %3
  ret void
}