; Function Attrs: mustprogress nounwind uwtable
define dso_local void @_ZN5clang12Preprocessor23processPathForFileMacroERN4llvm15SmallVectorImplIcEERKNS_11LangOptionsERKNS_10TargetInfoE(ptr noundef nonnull align 8 dereferenceable(24) %0, ptr noundef nonnull align 8 dereferenceable(841) %1, ptr noundef nonnull readonly align 8 captures(none) dereferenceable(489) %2) local_unnamed_addr #1 align 2 {
  tail call void @_ZNK5clang11LangOptions15remapPathPrefixERN4llvm15SmallVectorImplIcEE(ptr noundef nonnull align 8 dereferenceable(841) %1, ptr noundef nonnull align 8 dereferenceable(24) %0) #19
  %4 = getelementptr inbounds nuw i8, ptr %1, i64 800
  %5 = load i8, ptr %4, align 8
  %6 = trunc i8 %5 to i1
  br i1 %6, label %.sink.split, label %11

.sink.split:                                      ; preds = %3
  %7 = getelementptr inbounds nuw i8, ptr %2, i64 260
  %8 = load i32, ptr %7, align 4
  %9 = icmp eq i32 %8, 14
  %. = select i1 %9, i32 3, i32 1
  %10 = tail call noundef zeroext i1 @_ZN4llvm3sys4path11remove_dotsERNS_15SmallVectorImplIcEEbNS1_5StyleE(ptr noundef nonnull align 8 dereferenceable(24) %0, i1 noundef zeroext false, i32 noundef %.) #19
  br label %11

11:                                               ; preds = %.sink.split, %3
  ret void
}